; ModuleID = '6/57.c'
source_filename = "6/57.c"
target datalayout = "e-m:e-p270:32:32-p271:32:32-p272:64:64-i64:64-f80:128-n8:16:32:64-S128"
target triple = "x86_64-pc-linux-gnu"

@.str = private unnamed_addr constant [4 x i8] c"%d \00", align 1
@.str.1 = private unnamed_addr constant [3 x i8] c"%d\00", align 1
@.str.2 = private unnamed_addr constant [4 x i8] c"%d\0A\00", align 1
@.str.3 = private unnamed_addr constant [6 x i8] c"%d %d\00", align 1

; Function Attrs: noinline nounwind uwtable
define dso_local i32 @count(i32 %0, i32 %1) #0 {
  %3 = alloca i32, align 4
  %4 = alloca i32, align 4
  %5 = alloca i32, align 4
  %6 = alloca i32, align 4
  %7 = alloca i32, align 4
  %8 = alloca i32, align 4
  %9 = alloca i32, align 4
  %10 = alloca [100 x [100 x i32]], align 16
  %11 = alloca [100 x i32]*, align 8
  store i32 %0, i32* %3, align 4
  store i32 %1, i32* %4, align 4
  %12 = load i32, i32* %3, align 4
  store i32 %12, i32* %5, align 4
  %13 = load i32, i32* %4, align 4
  store i32 %13, i32* %6, align 4
  %14 = getelementptr inbounds [100 x [100 x i32]], [100 x [100 x i32]]* %10, i64 0, i64 0
  store [100 x i32]* %14, [100 x i32]** %11, align 8
  store i32 0, i32* %9, align 4
  store i32 0, i32* %7, align 4
  br label %15

15:                                               ; preds = %49, %2
  %16 = load i32, i32* %7, align 4
  %17 = load i32, i32* %5, align 4
  %18 = icmp slt i32 %16, %17
  br i1 %18, label %19, label %52

19:                                               ; preds = %15
  store i32 0, i32* %8, align 4
  br label %20

20:                                               ; preds = %35, %19
  %21 = load i32, i32* %8, align 4
  %22 = load i32, i32* %6, align 4
  %23 = sub nsw i32 %22, 1
  %24 = icmp slt i32 %21, %23
  br i1 %24, label %25, label %38

25:                                               ; preds = %20
  %26 = load [100 x i32]*, [100 x i32]** %11, align 8
  %27 = load i32, i32* %7, align 4
  %28 = sext i32 %27 to i64
  %29 = getelementptr inbounds [100 x i32], [100 x i32]* %26, i64 %28
  %30 = getelementptr inbounds [100 x i32], [100 x i32]* %29, i64 0, i64 0
  %31 = load i32, i32* %8, align 4
  %32 = sext i32 %31 to i64
  %33 = getelementptr inbounds i32, i32* %30, i64 %32
  %34 = call i32 (i8*, ...) @__isoc99_scanf(i8* getelementptr inbounds ([4 x i8], [4 x i8]* @.str, i64 0, i64 0), i32* %33)
  br label %35

35:                                               ; preds = %25
  %36 = load i32, i32* %8, align 4
  %37 = add nsw i32 %36, 1
  store i32 %37, i32* %8, align 4
  br label %20

38:                                               ; preds = %20
  %39 = load [100 x i32]*, [100 x i32]** %11, align 8
  %40 = load i32, i32* %7, align 4
  %41 = sext i32 %40 to i64
  %42 = getelementptr inbounds [100 x i32], [100 x i32]* %39, i64 %41
  %43 = getelementptr inbounds [100 x i32], [100 x i32]* %42, i64 0, i64 0
  %44 = load i32, i32* %6, align 4
  %45 = sub nsw i32 %44, 1
  %46 = sext i32 %45 to i64
  %47 = getelementptr inbounds i32, i32* %43, i64 %46
  %48 = call i32 (i8*, ...) @__isoc99_scanf(i8* getelementptr inbounds ([3 x i8], [3 x i8]* @.str.1, i64 0, i64 0), i32* %47)
  br label %49

49:                                               ; preds = %38
  %50 = load i32, i32* %7, align 4
  %51 = add nsw i32 %50, 1
  store i32 %51, i32* %7, align 4
  br label %15

52:                                               ; preds = %15
  store i32 0, i32* %8, align 4
  br label %53

53:                                               ; preds = %77, %52
  %54 = load i32, i32* %8, align 4
  %55 = load i32, i32* %6, align 4
  %56 = icmp slt i32 %54, %55
  br i1 %56, label %57, label %80

57:                                               ; preds = %53
  %58 = load i32, i32* %9, align 4
  %59 = load [100 x i32]*, [100 x i32]** %11, align 8
  %60 = getelementptr inbounds [100 x i32], [100 x i32]* %59, i64 0, i64 0
  %61 = load i32, i32* %8, align 4
  %62 = sext i32 %61 to i64
  %63 = getelementptr inbounds i32, i32* %60, i64 %62
  %64 = load i32, i32* %63, align 4
  %65 = add nsw i32 %58, %64
  %66 = load [100 x i32]*, [100 x i32]** %11, align 8
  %67 = load i32, i32* %5, align 4
  %68 = sext i32 %67 to i64
  %69 = getelementptr inbounds [100 x i32], [100 x i32]* %66, i64 %68
  %70 = getelementptr inbounds [100 x i32], [100 x i32]* %69, i64 -1
  %71 = getelementptr inbounds [100 x i32], [100 x i32]* %70, i64 0, i64 0
  %72 = load i32, i32* %8, align 4
  %73 = sext i32 %72 to i64
  %74 = getelementptr inbounds i32, i32* %71, i64 %73
  %75 = load i32, i32* %74, align 4
  %76 = add nsw i32 %65, %75
  store i32 %76, i32* %9, align 4
  br label %77

77:                                               ; preds = %57
  %78 = load i32, i32* %8, align 4
  %79 = add nsw i32 %78, 1
  store i32 %79, i32* %8, align 4
  br label %53

80:                                               ; preds = %53
  store i32 1, i32* %7, align 4
  br label %81

81:                                               ; preds = %106, %80
  %82 = load i32, i32* %7, align 4
  %83 = load i32, i32* %5, align 4
  %84 = sub nsw i32 %83, 1
  %85 = icmp slt i32 %82, %84
  br i1 %85, label %86, label %109

86:                                               ; preds = %81
  %87 = load i32, i32* %9, align 4
  %88 = load [100 x i32]*, [100 x i32]** %11, align 8
  %89 = load i32, i32* %7, align 4
  %90 = sext i32 %89 to i64
  %91 = getelementptr inbounds [100 x i32], [100 x i32]* %88, i64 %90
  %92 = getelementptr inbounds [100 x i32], [100 x i32]* %91, i64 0, i64 0
  %93 = load i32, i32* %92, align 4
  %94 = add nsw i32 %87, %93
  %95 = load [100 x i32]*, [100 x i32]** %11, align 8
  %96 = load i32, i32* %7, align 4
  %97 = sext i32 %96 to i64
  %98 = getelementptr inbounds [100 x i32], [100 x i32]* %95, i64 %97
  %99 = getelementptr inbounds [100 x i32], [100 x i32]* %98, i64 0, i64 0
  %100 = load i32, i32* %6, align 4
  %101 = sub nsw i32 %100, 1
  %102 = sext i32 %101 to i64
  %103 = getelementptr inbounds i32, i32* %99, i64 %102
  %104 = load i32, i32* %103, align 4
  %105 = add nsw i32 %94, %104
  store i32 %105, i32* %9, align 4
  br label %106

106:                                              ; preds = %86
  %107 = load i32, i32* %7, align 4
  %108 = add nsw i32 %107, 1
  store i32 %108, i32* %7, align 4
  br label %81

109:                                              ; preds = %81
  %110 = load i32, i32* %9, align 4
  ret i32 %110
}

declare dso_local i32 @__isoc99_scanf(i8*, ...) #1

; Function Attrs: noinline nounwind uwtable
define dso_local void @main() #0 {
  %1 = alloca i32, align 4
  %2 = alloca i32, align 4
  %3 = alloca i32, align 4
  %4 = alloca i32, align 4
  %5 = alloca [100 x i32], align 16
  %6 = call i32 (i8*, ...) @__isoc99_scanf(i8* getelementptr inbounds ([4 x i8], [4 x i8]* @.str.2, i64 0, i64 0), i32* %2)
  store i32 0, i32* %1, align 4
  br label %7

7:                                                ; preds = %19, %0
  %8 = load i32, i32* %1, align 4
  %9 = load i32, i32* %2, align 4
  %10 = icmp slt i32 %8, %9
  br i1 %10, label %11, label %22

11:                                               ; preds = %7
  %12 = call i32 (i8*, ...) @__isoc99_scanf(i8* getelementptr inbounds ([6 x i8], [6 x i8]* @.str.3, i64 0, i64 0), i32* %3, i32* %4)
  %13 = load i32, i32* %3, align 4
  %14 = load i32, i32* %4, align 4
  %15 = call i32 @count(i32 %13, i32 %14)
  %16 = load i32, i32* %1, align 4
  %17 = sext i32 %16 to i64
  %18 = getelementptr inbounds [100 x i32], [100 x i32]* %5, i64 0, i64 %17
  store i32 %15, i32* %18, align 4
  br label %19

19:                                               ; preds = %11
  %20 = load i32, i32* %1, align 4
  %21 = add nsw i32 %20, 1
  store i32 %21, i32* %1, align 4
  br label %7

22:                                               ; preds = %7
  store i32 0, i32* %1, align 4
  br label %23

23:                                               ; preds = %33, %22
  %24 = load i32, i32* %1, align 4
  %25 = load i32, i32* %2, align 4
  %26 = icmp slt i32 %24, %25
  br i1 %26, label %27, label %36

27:                                               ; preds = %23
  %28 = load i32, i32* %1, align 4
  %29 = sext i32 %28 to i64
  %30 = getelementptr inbounds [100 x i32], [100 x i32]* %5, i64 0, i64 %29
  %31 = load i32, i32* %30, align 4
  %32 = call i32 (i8*, ...) @printf(i8* getelementptr inbounds ([4 x i8], [4 x i8]* @.str.2, i64 0, i64 0), i32 %31)
  br label %33

33:                                               ; preds = %27
  %34 = load i32, i32* %1, align 4
  %35 = add nsw i32 %34, 1
  store i32 %35, i32* %1, align 4
  br label %23

36:                                               ; preds = %23
  ret void
}

declare dso_local i32 @printf(i8*, ...) #1


!llvm.module.flags = !{!0}
!llvm.ident = !{!1}

!0 = !{i32 1, !"wchar_size", i32 4}
!1 = !{!"clang version 10.0.0-4ubuntu1 "}
